target datalayout = "e-m:e-p270:32:32-p271:32:32-p272:64:64-i64:64-i128:128-f80:128-n8:16:32:64-S128"
target triple = "x86_64-pc-linux-gnu"

%struct._rtd_stat_table = type { ptr, i32, ptr }
%class.QList.9 = type { %struct.QArrayDataPointer.12 }
%struct.QArrayDataPointer.12 = type { ptr, ptr, i64 }
%class.QList.13 = type { %struct.QArrayDataPointer.16 }
%struct.QArrayDataPointer.16 = type { ptr, ptr, i64 }
%class.QFlags = type { i32 }
%struct._rtd_data_t = type { %struct._rtd_stat_table, ptr }
%class.QTreeWidgetItemIterator = type <{ %class.QScopedPointer.17, ptr, %class.QFlags.18, [4 x i8] }>
%class.QScopedPointer.17 = type { ptr }
%class.QFlags.18 = type { i32 }
%class.QTreeWidgetItem = type <{ ptr, i32, [4 x i8], %class.QList.9, ptr, ptr, ptr, %class.QList.13, %class.QFlags, [4 x i8] }>

; Function Attrs: inlinehint mustprogress nounwind null_pointer_is_valid sspstrong uwtable
define linkonce_odr noundef i32 @_ZNK15QTreeWidgetItem4typeEv(ptr noundef align 8 dereferenceable_or_null(92) %0) #7 comdat align 2 {
  %2 = alloca ptr, align 8
  store ptr %0, ptr %2, align 8
  %3 = load ptr, ptr %2, align 8
  %4 = getelementptr inbounds nuw %class.QTreeWidgetItem, ptr %3, i32 0, i32 1
  %5 = load i32, ptr %4, align 8
  ret i32 %5
}

; Function Attrs: inlinehint mustprogress nounwind null_pointer_is_valid sspstrong uwtable
define linkonce_odr noundef ptr @_ZNK23QTreeWidgetItemIteratordeEv(ptr noundef align 8 dereferenceable_or_null(20) %0) #7 comdat align 2 {
  %2 = alloca ptr, align 8
  store ptr %0, ptr %2, align 8
  %3 = load ptr, ptr %2, align 8
  %4 = getelementptr inbounds nuw %class.QTreeWidgetItemIterator, ptr %3, i32 0, i32 1
  %5 = load ptr, ptr %4, align 8
  ret ptr %5
}

; Function Attrs: inlinehint mustprogress nounwind null_pointer_is_valid sspstrong uwtable
define linkonce_odr void @_ZN6QFlagsIN23QTreeWidgetItemIterator12IteratorFlagEEC2ES1_(ptr noundef align 4 dereferenceable_or_null(4) %0, i32 noundef %1) unnamed_addr #7 comdat align 2 {
  %3 = alloca ptr, align 8
  %4 = alloca i32, align 4
  store ptr %0, ptr %3, align 8
  store i32 %1, ptr %4, align 4
  %5 = load ptr, ptr %3, align 8
  %6 = getelementptr inbounds nuw %class.QFlags.18, ptr %5, i32 0, i32 0
  %7 = load i32, ptr %4, align 4
  store i32 %7, ptr %6, align 4
  ret void
}

; Function Attrs: mustprogress null_pointer_is_valid sspstrong uwtable
define void @_ZN23ResponseTimeDelayDialog7tapDrawEPv(ptr noundef %0) #3 align 2 personality ptr @__gxx_personality_v0 {
  %2 = alloca ptr, align 8
  %3 = alloca ptr, align 8
  %4 = alloca ptr, align 8
  %5 = alloca i32, align 4
  %6 = alloca %class.QTreeWidgetItemIterator, align 8
  %7 = alloca %class.QFlags.18, align 4
  %8 = alloca ptr, align 8
  %9 = alloca i32, align 4
  %10 = alloca ptr, align 8
  %11 = alloca i32, align 4
  store ptr %0, ptr %2, align 8
  call void @llvm.lifetime.start.p0(i64 8, ptr %3) #2
  %12 = load ptr, ptr %2, align 8
  store ptr %12, ptr %3, align 8
  call void @llvm.lifetime.start.p0(i64 8, ptr %4) #2
  %13 = load ptr, ptr %3, align 8
  %14 = getelementptr inbounds nuw %struct._rtd_data_t, ptr %13, i32 0, i32 1
  %15 = load ptr, ptr %14, align 8
  store ptr %15, ptr %4, align 8
  %16 = load ptr, ptr %4, align 8
  %17 = icmp ne ptr %16, null
  br i1 %17, label %18, label %22

18:                                               ; preds = %1
  %19 = load ptr, ptr %4, align 8
  %20 = call noundef ptr @_ZN18TapParameterDialog15statsTreeWidgetEv(ptr noundef align 8 dereferenceable_or_null(232) %19)
  %21 = icmp ne ptr %20, null
  br i1 %21, label %23, label %22

22:                                               ; preds = %18, %1
  store i32 1, ptr %5, align 4
  br label %79

23:                                               ; preds = %18
  call void @llvm.lifetime.start.p0(i64 24, ptr %6) #2
  %24 = load ptr, ptr %4, align 8
  %25 = call noundef ptr @_ZN18TapParameterDialog15statsTreeWidgetEv(ptr noundef align 8 dereferenceable_or_null(232) %24)
  call void @_ZN6QFlagsIN23QTreeWidgetItemIterator12IteratorFlagEEC2ES1_(ptr noundef align 4 dereferenceable_or_null(4) %7, i32 noundef 0) #2
  %26 = getelementptr inbounds nuw %class.QFlags.18, ptr %7, i32 0, i32 0
  %27 = load i32, ptr %26, align 4
  call void @_ZN23QTreeWidgetItemIteratorC1EP11QTreeWidget6QFlagsINS_12IteratorFlagEE(ptr noundef align 8 dereferenceable_or_null(20) %6, ptr noundef %25, i32 %27)
  br label %28

28:                                               ; preds = %53, %23
  %29 = invoke noundef ptr @_ZNK23QTreeWidgetItemIteratordeEv(ptr noundef align 8 dereferenceable_or_null(20) %6)
          to label %30 unwind label %43

30:                                               ; preds = %28
  %31 = icmp ne ptr %29, null
  br i1 %31, label %32, label %54

32:                                               ; preds = %30
  %33 = invoke noundef ptr @_ZNK23QTreeWidgetItemIteratordeEv(ptr noundef align 8 dereferenceable_or_null(20) %6)
          to label %34 unwind label %43

34:                                               ; preds = %32
  %35 = invoke noundef i32 @_ZNK15QTreeWidgetItem4typeEv(ptr noundef align 8 dereferenceable_or_null(92) %33)
          to label %36 unwind label %43

36:                                               ; preds = %34
  %37 = icmp eq i32 %35, 1001
  br i1 %37, label %38, label %51

38:                                               ; preds = %36
  call void @llvm.lifetime.start.p0(i64 8, ptr %10) #2
  %39 = invoke noundef ptr @_ZNK23QTreeWidgetItemIteratordeEv(ptr noundef align 8 dereferenceable_or_null(20) %6)
          to label %40 unwind label %47

40:                                               ; preds = %38
  store ptr %39, ptr %10, align 8
  %41 = load ptr, ptr %10, align 8
  invoke void @_ZN25RtdTimeStatTreeWidgetItem4drawEv(ptr noundef align 8 dereferenceable_or_null(128) %41)
          to label %42 unwind label %47

42:                                               ; preds = %40
  call void @llvm.lifetime.end.p0(i64 8, ptr %10) #2
  br label %51

43:                                               ; preds = %51, %34, %32, %28
  %44 = landingpad { ptr, i32 }
          cleanup
  %45 = extractvalue { ptr, i32 } %44, 0
  store ptr %45, ptr %8, align 8
  %46 = extractvalue { ptr, i32 } %44, 1
  store i32 %46, ptr %9, align 4
  br label %82

47:                                               ; preds = %40, %38
  %48 = landingpad { ptr, i32 }
          cleanup
  %49 = extractvalue { ptr, i32 } %48, 0
  store ptr %49, ptr %8, align 8
  %50 = extractvalue { ptr, i32 } %48, 1
  store i32 %50, ptr %9, align 4
  call void @llvm.lifetime.end.p0(i64 8, ptr %10) #2
  br label %82

51:                                               ; preds = %42, %36
  %52 = invoke noundef align 8 dereferenceable(20) ptr @_ZN23QTreeWidgetItemIteratorppEv(ptr noundef align 8 dereferenceable_or_null(20) %6)
          to label %53 unwind label %43

53:                                               ; preds = %51
  br label %28, !llvm.loop !11

54:                                               ; preds = %30
  call void @llvm.lifetime.start.p0(i64 4, ptr %11) #2
  store i32 0, ptr %11, align 4
  br label %55

55:                                               ; preds = %75, %54
  %56 = load i32, ptr %11, align 4
  %57 = load ptr, ptr %4, align 8
  %58 = invoke noundef ptr @_ZN18TapParameterDialog15statsTreeWidgetEv(ptr noundef align 8 dereferenceable_or_null(232) %57)
          to label %59 unwind label %65

59:                                               ; preds = %55
  %60 = invoke noundef i32 @_ZNK11QTreeWidget11columnCountEv(ptr noundef align 8 dereferenceable_or_null(40) %58)
          to label %61 unwind label %65

61:                                               ; preds = %59
  %62 = sub i32 %60, 1
  %63 = icmp slt i32 %56, %62
  br i1 %63, label %69, label %64

64:                                               ; preds = %61
  store i32 4, ptr %5, align 4
  call void @llvm.lifetime.end.p0(i64 4, ptr %11) #2
  br label %78

65:                                               ; preds = %72, %69, %59, %55
  %66 = landingpad { ptr, i32 }
          cleanup
  %67 = extractvalue { ptr, i32 } %66, 0
  store ptr %67, ptr %8, align 8
  %68 = extractvalue { ptr, i32 } %66, 1
  store i32 %68, ptr %9, align 4
  call void @llvm.lifetime.end.p0(i64 4, ptr %11) #2
  br label %82

69:                                               ; preds = %61
  %70 = load ptr, ptr %4, align 8
  %71 = invoke noundef ptr @_ZN18TapParameterDialog15statsTreeWidgetEv(ptr noundef align 8 dereferenceable_or_null(232) %70)
          to label %72 unwind label %65

72:                                               ; preds = %69
  %73 = load i32, ptr %11, align 4
  invoke void @_ZN9QTreeView22resizeColumnToContentsEi(ptr noundef align 8 dereferenceable_or_null(40) %71, i32 noundef %73)
          to label %74 unwind label %65

74:                                               ; preds = %72
  br label %75

75:                                               ; preds = %74
  %76 = load i32, ptr %11, align 4
  %77 = add i32 %76, 1
  store i32 %77, ptr %11, align 4
  br label %55, !llvm.loop !12

78:                                               ; preds = %64
  call void @_ZN23QTreeWidgetItemIteratorD1Ev(ptr noundef align 8 dereferenceable_or_null(20) %6) #2
  call void @llvm.lifetime.end.p0(i64 24, ptr %6) #2
  store i32 0, ptr %5, align 4
  br label %79

79:                                               ; preds = %78, %22
  call void @llvm.lifetime.end.p0(i64 8, ptr %4) #2
  call void @llvm.lifetime.end.p0(i64 8, ptr %3) #2
  %80 = load i32, ptr %5, align 4
  switch i32 %80, label %88 [
    i32 0, label %81
    i32 1, label %81
  ]

81:                                               ; preds = %79, %79
  ret void

82:                                               ; preds = %65, %47, %43
  call void @_ZN23QTreeWidgetItemIteratorD1Ev(ptr noundef align 8 dereferenceable_or_null(20) %6) #2
  call void @llvm.lifetime.end.p0(i64 24, ptr %6) #2
  call void @llvm.lifetime.end.p0(i64 8, ptr %4) #2
  call void @llvm.lifetime.end.p0(i64 8, ptr %3) #2
  br label %83

83:                                               ; preds = %82
  %84 = load ptr, ptr %8, align 8
  %85 = load i32, ptr %9, align 4
  %86 = insertvalue { ptr, i32 } poison, ptr %84, 0
  %87 = insertvalue { ptr, i32 } %86, i32 %85, 1
  resume { ptr, i32 } %87

88:                                               ; preds = %79
  unreachable
}