; Function Attrs: mustprogress null_pointer_is_valid sspstrong uwtable
define void @_ZN23ResponseTimeDelayDialog7tapDrawEPv(ptr noundef readonly captures(none) %0) #2 align 2 personality ptr @__gxx_personality_v0 {
  %2 = alloca %class.QTreeWidgetItemIterator, align 8
  %3 = getelementptr inbounds nuw i8, ptr %0, i64 24
  %4 = load ptr, ptr %3, align 8
  %.not = icmp eq ptr %4, null
  br i1 %.not, label %37, label %5

5:                                                ; preds = %1
  %6 = tail call noundef ptr @_ZN18TapParameterDialog15statsTreeWidgetEv(ptr noundef nonnull align 8 dereferenceable_or_null(232) %4)
  %.not15 = icmp eq ptr %6, null
  br i1 %.not15, label %37, label %7

7:                                                ; preds = %5
  call void @llvm.lifetime.start.p0(i64 24, ptr nonnull %2) #24
  %8 = tail call noundef ptr @_ZN18TapParameterDialog15statsTreeWidgetEv(ptr noundef nonnull align 8 dereferenceable_or_null(232) %4)
  call void @_ZN23QTreeWidgetItemIteratorC1EP11QTreeWidget6QFlagsINS_12IteratorFlagEE(ptr noundef nonnull align 8 dereferenceable_or_null(20) %2, ptr noundef %8, i32 0)
  %9 = getelementptr inbounds nuw i8, ptr %2, i64 8
  br label %10

10:                                               ; preds = %21, %7
  %11 = load ptr, ptr %9, align 8
  %.not16 = icmp eq ptr %11, null
  br i1 %.not16, label %.preheader, label %12

12:                                               ; preds = %10
  %13 = getelementptr inbounds nuw i8, ptr %11, i64 8
  %14 = load i32, ptr %13, align 8
  %15 = icmp eq i32 %14, 1001
  br i1 %15, label %16, label %21

16:                                               ; preds = %12
  invoke void @_ZN25RtdTimeStatTreeWidgetItem4drawEv(ptr noundef nonnull align 8 dereferenceable_or_null(128) %11)
          to label %21 unwind label %19

17:                                               ; preds = %21
  %18 = landingpad { ptr, i32 }
          cleanup
  br label %38

19:                                               ; preds = %16
  %20 = landingpad { ptr, i32 }
          cleanup
  br label %38

21:                                               ; preds = %16, %12
  %22 = invoke noundef align 8 dereferenceable(20) ptr @_ZN23QTreeWidgetItemIteratorppEv(ptr noundef nonnull align 8 dereferenceable_or_null(20) %2)
          to label %10 unwind label %17, !llvm.loop !12

.preheader:                                       ; preds = %10, %35
  %.0 = phi i32 [ %36, %35 ], [ 0, %10 ]
  %23 = invoke noundef ptr @_ZN18TapParameterDialog15statsTreeWidgetEv(ptr noundef nonnull align 8 dereferenceable_or_null(232) %4)
          to label %24 unwind label %30

24:                                               ; preds = %.preheader
  %25 = invoke noundef i32 @_ZNK11QTreeWidget11columnCountEv(ptr noundef align 8 dereferenceable_or_null(40) %23)
          to label %26 unwind label %30

26:                                               ; preds = %24
  %27 = add i32 %25, -1
  %28 = icmp slt i32 %.0, %27
  br i1 %28, label %32, label %29

29:                                               ; preds = %26
  call void @_ZN23QTreeWidgetItemIteratorD1Ev(ptr noundef nonnull align 8 dereferenceable_or_null(20) %2) #24
  call void @llvm.lifetime.end.p0(i64 24, ptr nonnull %2) #24
  br label %37

30:                                               ; preds = %34, %32, %24, %.preheader
  %31 = landingpad { ptr, i32 }
          cleanup
  br label %38

32:                                               ; preds = %26
  %33 = invoke noundef ptr @_ZN18TapParameterDialog15statsTreeWidgetEv(ptr noundef nonnull align 8 dereferenceable_or_null(232) %4)
          to label %34 unwind label %30

34:                                               ; preds = %32
  invoke void @_ZN9QTreeView22resizeColumnToContentsEi(ptr noundef align 8 dereferenceable_or_null(40) %33, i32 noundef %.0)
          to label %35 unwind label %30

35:                                               ; preds = %34
  %36 = add nuw nsw i32 %.0, 1
  br label %.preheader, !llvm.loop !13

37:                                               ; preds = %1, %5, %29
  ret void

38:                                               ; preds = %30, %19, %17
  %.pn = phi { ptr, i32 } [ %18, %17 ], [ %20, %19 ], [ %31, %30 ]
  call void @_ZN23QTreeWidgetItemIteratorD1Ev(ptr noundef nonnull align 8 dereferenceable_or_null(20) %2) #24
  call void @llvm.lifetime.end.p0(i64 24, ptr nonnull %2) #24
  resume { ptr, i32 } %.pn
}